target datalayout = "e-m:e-p270:32:32-p271:32:32-p272:64:64-i64:64-i128:128-f80:128-n8:16:32:64-S128"
target triple = "x86_64-pc-linux-gnu"

; Function Attrs: alwaysinline nounwind willreturn memory(none) uwtable
define internal zeroext i8 @av_clip_uint8_c(i32 noundef %0) #6 {
  %2 = alloca i8, align 1
  %3 = alloca i32, align 4
  store i32 %0, ptr %3, align 4, !tbaa !9
  %4 = load i32, ptr %3, align 4, !tbaa !9
  %5 = and i32 %4, -256
  %6 = icmp ne i32 %5, 0
  br i1 %6, label %7, label %12

7:                                                ; preds = %1
  %8 = load i32, ptr %3, align 4, !tbaa !9
  %9 = xor i32 %8, -1
  %10 = ashr i32 %9, 31
  %11 = trunc i32 %10 to i8
  store i8 %11, ptr %2, align 1
  br label %15

12:                                               ; preds = %1
  %13 = load i32, ptr %3, align 4, !tbaa !9
  %14 = trunc i32 %13 to i8
  store i8 %14, ptr %2, align 1
  br label %15

15:                                               ; preds = %12, %7
  %16 = load i8, ptr %2, align 1
  ret i8 %16
}

; Function Attrs: nounwind uwtable
define internal void @biweight_h264_pixels8_8_c(ptr noundef %0, ptr noundef %1, i64 noundef %2, i32 noundef %3, i32 noundef %4, i32 noundef %5, i32 noundef %6, i32 noundef %7) #1 {
  %9 = alloca ptr, align 8
  %10 = alloca ptr, align 8
  %11 = alloca i64, align 8
  %12 = alloca i32, align 4
  %13 = alloca i32, align 4
  %14 = alloca i32, align 4
  %15 = alloca i32, align 4
  %16 = alloca i32, align 4
  %17 = alloca i32, align 4
  %18 = alloca ptr, align 8
  %19 = alloca ptr, align 8
  store ptr %0, ptr %9, align 8, !tbaa !39
  store ptr %1, ptr %10, align 8, !tbaa !39
  store i64 %2, ptr %11, align 8, !tbaa !53
  store i32 %3, ptr %12, align 4, !tbaa !9
  store i32 %4, ptr %13, align 4, !tbaa !9
  store i32 %5, ptr %14, align 4, !tbaa !9
  store i32 %6, ptr %15, align 4, !tbaa !9
  store i32 %7, ptr %16, align 4, !tbaa !9
  call void @llvm.lifetime.start.p0(i64 4, ptr %17) #9
  call void @llvm.lifetime.start.p0(i64 8, ptr %18) #9
  %20 = load ptr, ptr %9, align 8, !tbaa !39
  store ptr %20, ptr %18, align 8, !tbaa !39
  call void @llvm.lifetime.start.p0(i64 8, ptr %19) #9
  %21 = load ptr, ptr %10, align 8, !tbaa !39
  store ptr %21, ptr %19, align 8, !tbaa !39
  %22 = load i64, ptr %11, align 8, !tbaa !53
  %23 = ashr i64 %22, 0
  store i64 %23, ptr %11, align 8, !tbaa !53
  %24 = load i32, ptr %16, align 4, !tbaa !9
  %25 = shl i32 %24, 0
  store i32 %25, ptr %16, align 4, !tbaa !9
  %26 = load i32, ptr %16, align 4, !tbaa !9
  %27 = add nsw i32 %26, 1
  %28 = or i32 %27, 1
  %29 = load i32, ptr %13, align 4, !tbaa !9
  %30 = shl i32 %28, %29
  store i32 %30, ptr %16, align 4, !tbaa !9
  store i32 0, ptr %17, align 4, !tbaa !9
  br label %31

31:                                               ; preds = %204, %8
  %32 = load i32, ptr %17, align 4, !tbaa !9
  %33 = load i32, ptr %12, align 4, !tbaa !9
  %34 = icmp slt i32 %32, %33
  br i1 %34, label %35, label %213

35:                                               ; preds = %31
  %36 = load ptr, ptr %19, align 8, !tbaa !39
  %37 = getelementptr inbounds i8, ptr %36, i64 0
  %38 = load i8, ptr %37, align 1, !tbaa !50
  %39 = zext i8 %38 to i32
  %40 = load i32, ptr %15, align 4, !tbaa !9
  %41 = mul nsw i32 %39, %40
  %42 = load ptr, ptr %18, align 8, !tbaa !39
  %43 = getelementptr inbounds i8, ptr %42, i64 0
  %44 = load i8, ptr %43, align 1, !tbaa !50
  %45 = zext i8 %44 to i32
  %46 = load i32, ptr %14, align 4, !tbaa !9
  %47 = mul nsw i32 %45, %46
  %48 = add nsw i32 %41, %47
  %49 = load i32, ptr %16, align 4, !tbaa !9
  %50 = add nsw i32 %48, %49
  %51 = load i32, ptr %13, align 4, !tbaa !9
  %52 = add nsw i32 %51, 1
  %53 = ashr i32 %50, %52
  %54 = call zeroext i8 @av_clip_uint8_c(i32 noundef %53) #10
  %55 = load ptr, ptr %18, align 8, !tbaa !39
  %56 = getelementptr inbounds i8, ptr %55, i64 0
  store i8 %54, ptr %56, align 1, !tbaa !50
  %57 = load ptr, ptr %19, align 8, !tbaa !39
  %58 = getelementptr inbounds i8, ptr %57, i64 1
  %59 = load i8, ptr %58, align 1, !tbaa !50
  %60 = zext i8 %59 to i32
  %61 = load i32, ptr %15, align 4, !tbaa !9
  %62 = mul nsw i32 %60, %61
  %63 = load ptr, ptr %18, align 8, !tbaa !39
  %64 = getelementptr inbounds i8, ptr %63, i64 1
  %65 = load i8, ptr %64, align 1, !tbaa !50
  %66 = zext i8 %65 to i32
  %67 = load i32, ptr %14, align 4, !tbaa !9
  %68 = mul nsw i32 %66, %67
  %69 = add nsw i32 %62, %68
  %70 = load i32, ptr %16, align 4, !tbaa !9
  %71 = add nsw i32 %69, %70
  %72 = load i32, ptr %13, align 4, !tbaa !9
  %73 = add nsw i32 %72, 1
  %74 = ashr i32 %71, %73
  %75 = call zeroext i8 @av_clip_uint8_c(i32 noundef %74) #10
  %76 = load ptr, ptr %18, align 8, !tbaa !39
  %77 = getelementptr inbounds i8, ptr %76, i64 1
  store i8 %75, ptr %77, align 1, !tbaa !50
  %78 = load ptr, ptr %19, align 8, !tbaa !39
  %79 = getelementptr inbounds i8, ptr %78, i64 2
  %80 = load i8, ptr %79, align 1, !tbaa !50
  %81 = zext i8 %80 to i32
  %82 = load i32, ptr %15, align 4, !tbaa !9
  %83 = mul nsw i32 %81, %82
  %84 = load ptr, ptr %18, align 8, !tbaa !39
  %85 = getelementptr inbounds i8, ptr %84, i64 2
  %86 = load i8, ptr %85, align 1, !tbaa !50
  %87 = zext i8 %86 to i32
  %88 = load i32, ptr %14, align 4, !tbaa !9
  %89 = mul nsw i32 %87, %88
  %90 = add nsw i32 %83, %89
  %91 = load i32, ptr %16, align 4, !tbaa !9
  %92 = add nsw i32 %90, %91
  %93 = load i32, ptr %13, align 4, !tbaa !9
  %94 = add nsw i32 %93, 1
  %95 = ashr i32 %92, %94
  %96 = call zeroext i8 @av_clip_uint8_c(i32 noundef %95) #10
  %97 = load ptr, ptr %18, align 8, !tbaa !39
  %98 = getelementptr inbounds i8, ptr %97, i64 2
  store i8 %96, ptr %98, align 1, !tbaa !50
  %99 = load ptr, ptr %19, align 8, !tbaa !39
  %100 = getelementptr inbounds i8, ptr %99, i64 3
  %101 = load i8, ptr %100, align 1, !tbaa !50
  %102 = zext i8 %101 to i32
  %103 = load i32, ptr %15, align 4, !tbaa !9
  %104 = mul nsw i32 %102, %103
  %105 = load ptr, ptr %18, align 8, !tbaa !39
  %106 = getelementptr inbounds i8, ptr %105, i64 3
  %107 = load i8, ptr %106, align 1, !tbaa !50
  %108 = zext i8 %107 to i32
  %109 = load i32, ptr %14, align 4, !tbaa !9
  %110 = mul nsw i32 %108, %109
  %111 = add nsw i32 %104, %110
  %112 = load i32, ptr %16, align 4, !tbaa !9
  %113 = add nsw i32 %111, %112
  %114 = load i32, ptr %13, align 4, !tbaa !9
  %115 = add nsw i32 %114, 1
  %116 = ashr i32 %113, %115
  %117 = call zeroext i8 @av_clip_uint8_c(i32 noundef %116) #10
  %118 = load ptr, ptr %18, align 8, !tbaa !39
  %119 = getelementptr inbounds i8, ptr %118, i64 3
  store i8 %117, ptr %119, align 1, !tbaa !50
  %120 = load ptr, ptr %19, align 8, !tbaa !39
  %121 = getelementptr inbounds i8, ptr %120, i64 4
  %122 = load i8, ptr %121, align 1, !tbaa !50
  %123 = zext i8 %122 to i32
  %124 = load i32, ptr %15, align 4, !tbaa !9
  %125 = mul nsw i32 %123, %124
  %126 = load ptr, ptr %18, align 8, !tbaa !39
  %127 = getelementptr inbounds i8, ptr %126, i64 4
  %128 = load i8, ptr %127, align 1, !tbaa !50
  %129 = zext i8 %128 to i32
  %130 = load i32, ptr %14, align 4, !tbaa !9
  %131 = mul nsw i32 %129, %130
  %132 = add nsw i32 %125, %131
  %133 = load i32, ptr %16, align 4, !tbaa !9
  %134 = add nsw i32 %132, %133
  %135 = load i32, ptr %13, align 4, !tbaa !9
  %136 = add nsw i32 %135, 1
  %137 = ashr i32 %134, %136
  %138 = call zeroext i8 @av_clip_uint8_c(i32 noundef %137) #10
  %139 = load ptr, ptr %18, align 8, !tbaa !39
  %140 = getelementptr inbounds i8, ptr %139, i64 4
  store i8 %138, ptr %140, align 1, !tbaa !50
  %141 = load ptr, ptr %19, align 8, !tbaa !39
  %142 = getelementptr inbounds i8, ptr %141, i64 5
  %143 = load i8, ptr %142, align 1, !tbaa !50
  %144 = zext i8 %143 to i32
  %145 = load i32, ptr %15, align 4, !tbaa !9
  %146 = mul nsw i32 %144, %145
  %147 = load ptr, ptr %18, align 8, !tbaa !39
  %148 = getelementptr inbounds i8, ptr %147, i64 5
  %149 = load i8, ptr %148, align 1, !tbaa !50
  %150 = zext i8 %149 to i32
  %151 = load i32, ptr %14, align 4, !tbaa !9
  %152 = mul nsw i32 %150, %151
  %153 = add nsw i32 %146, %152
  %154 = load i32, ptr %16, align 4, !tbaa !9
  %155 = add nsw i32 %153, %154
  %156 = load i32, ptr %13, align 4, !tbaa !9
  %157 = add nsw i32 %156, 1
  %158 = ashr i32 %155, %157
  %159 = call zeroext i8 @av_clip_uint8_c(i32 noundef %158) #10
  %160 = load ptr, ptr %18, align 8, !tbaa !39
  %161 = getelementptr inbounds i8, ptr %160, i64 5
  store i8 %159, ptr %161, align 1, !tbaa !50
  %162 = load ptr, ptr %19, align 8, !tbaa !39
  %163 = getelementptr inbounds i8, ptr %162, i64 6
  %164 = load i8, ptr %163, align 1, !tbaa !50
  %165 = zext i8 %164 to i32
  %166 = load i32, ptr %15, align 4, !tbaa !9
  %167 = mul nsw i32 %165, %166
  %168 = load ptr, ptr %18, align 8, !tbaa !39
  %169 = getelementptr inbounds i8, ptr %168, i64 6
  %170 = load i8, ptr %169, align 1, !tbaa !50
  %171 = zext i8 %170 to i32
  %172 = load i32, ptr %14, align 4, !tbaa !9
  %173 = mul nsw i32 %171, %172
  %174 = add nsw i32 %167, %173
  %175 = load i32, ptr %16, align 4, !tbaa !9
  %176 = add nsw i32 %174, %175
  %177 = load i32, ptr %13, align 4, !tbaa !9
  %178 = add nsw i32 %177, 1
  %179 = ashr i32 %176, %178
  %180 = call zeroext i8 @av_clip_uint8_c(i32 noundef %179) #10
  %181 = load ptr, ptr %18, align 8, !tbaa !39
  %182 = getelementptr inbounds i8, ptr %181, i64 6
  store i8 %180, ptr %182, align 1, !tbaa !50
  %183 = load ptr, ptr %19, align 8, !tbaa !39
  %184 = getelementptr inbounds i8, ptr %183, i64 7
  %185 = load i8, ptr %184, align 1, !tbaa !50
  %186 = zext i8 %185 to i32
  %187 = load i32, ptr %15, align 4, !tbaa !9
  %188 = mul nsw i32 %186, %187
  %189 = load ptr, ptr %18, align 8, !tbaa !39
  %190 = getelementptr inbounds i8, ptr %189, i64 7
  %191 = load i8, ptr %190, align 1, !tbaa !50
  %192 = zext i8 %191 to i32
  %193 = load i32, ptr %14, align 4, !tbaa !9
  %194 = mul nsw i32 %192, %193
  %195 = add nsw i32 %188, %194
  %196 = load i32, ptr %16, align 4, !tbaa !9
  %197 = add nsw i32 %195, %196
  %198 = load i32, ptr %13, align 4, !tbaa !9
  %199 = add nsw i32 %198, 1
  %200 = ashr i32 %197, %199
  %201 = call zeroext i8 @av_clip_uint8_c(i32 noundef %200) #10
  %202 = load ptr, ptr %18, align 8, !tbaa !39
  %203 = getelementptr inbounds i8, ptr %202, i64 7
  store i8 %201, ptr %203, align 1, !tbaa !50
  br label %204

204:                                              ; preds = %35
  %205 = load i32, ptr %17, align 4, !tbaa !9
  %206 = add nsw i32 %205, 1
  store i32 %206, ptr %17, align 4, !tbaa !9
  %207 = load i64, ptr %11, align 8, !tbaa !53
  %208 = load ptr, ptr %18, align 8, !tbaa !39
  %209 = getelementptr inbounds i8, ptr %208, i64 %207
  store ptr %209, ptr %18, align 8, !tbaa !39
  %210 = load i64, ptr %11, align 8, !tbaa !53
  %211 = load ptr, ptr %19, align 8, !tbaa !39
  %212 = getelementptr inbounds i8, ptr %211, i64 %210
  store ptr %212, ptr %19, align 8, !tbaa !39
  br label %31, !llvm.loop !92

213:                                              ; preds = %31
  call void @llvm.lifetime.end.p0(i64 8, ptr %19) #9
  call void @llvm.lifetime.end.p0(i64 8, ptr %18) #9
  call void @llvm.lifetime.end.p0(i64 4, ptr %17) #9
  ret void
}