; Function Attrs: nofree norecurse nosync nounwind memory(argmem: readwrite) uwtable
define internal void @biweight_h264_pixels8_8_c(ptr noundef captures(none) %0, ptr noundef readonly captures(none) %1, i64 noundef %2, i32 noundef %3, i32 noundef %4, i32 noundef %5, i32 noundef %6, i32 noundef %7) #1 {
  %9 = add nsw i32 %7, 1
  %10 = or i32 %9, 1
  %11 = shl i32 %10, %4
  %12 = icmp sgt i32 %3, 0
  br i1 %12, label %.lver.check, label %._crit_edge

.lver.check:                                      ; preds = %8
  %13 = add nsw i32 %4, 1
  %ident.check.not = icmp eq i64 %2, 1
  br i1 %ident.check.not, label %.ph, label %.ph.lver.orig

.ph.lver.orig:                                    ; preds = %.lver.check, %.ph.lver.orig
  %.093.lver.orig = phi ptr [ %118, %.ph.lver.orig ], [ %1, %.lver.check ]
  %.06892.lver.orig = phi ptr [ %117, %.ph.lver.orig ], [ %0, %.lver.check ]
  %.06991.lver.orig = phi i32 [ %116, %.ph.lver.orig ], [ 0, %.lver.check ]
  %14 = load i8, ptr %.093.lver.orig, align 1, !tbaa !42
  %15 = zext i8 %14 to i32
  %16 = mul nsw i32 %6, %15
  %17 = load i8, ptr %.06892.lver.orig, align 1, !tbaa !42
  %18 = zext i8 %17 to i32
  %19 = mul nsw i32 %5, %18
  %20 = add i32 %16, %11
  %21 = add i32 %20, %19
  %22 = ashr i32 %21, %13
  %.not.i.lver.orig = icmp ult i32 %22, 256
  %isnotneg.i.lver.orig = icmp sgt i32 %22, -1
  %23 = sext i1 %isnotneg.i.lver.orig to i8
  %24 = trunc nuw i32 %22 to i8
  %.0.i.lver.orig = select i1 %.not.i.lver.orig, i8 %24, i8 %23
  store i8 %.0.i.lver.orig, ptr %.06892.lver.orig, align 1, !tbaa !42
  %25 = getelementptr inbounds nuw i8, ptr %.093.lver.orig, i64 1
  %26 = load i8, ptr %25, align 1, !tbaa !42
  %27 = zext i8 %26 to i32
  %28 = mul nsw i32 %6, %27
  %29 = getelementptr inbounds nuw i8, ptr %.06892.lver.orig, i64 1
  %30 = load i8, ptr %29, align 1, !tbaa !42
  %31 = zext i8 %30 to i32
  %32 = mul nsw i32 %5, %31
  %33 = add i32 %28, %11
  %34 = add i32 %33, %32
  %35 = ashr i32 %34, %13
  %.not.i70.lver.orig = icmp ult i32 %35, 256
  %isnotneg.i71.lver.orig = icmp sgt i32 %35, -1
  %36 = sext i1 %isnotneg.i71.lver.orig to i8
  %37 = trunc nuw i32 %35 to i8
  %.0.i72.lver.orig = select i1 %.not.i70.lver.orig, i8 %37, i8 %36
  store i8 %.0.i72.lver.orig, ptr %29, align 1, !tbaa !42
  %38 = getelementptr inbounds nuw i8, ptr %.093.lver.orig, i64 2
  %39 = load i8, ptr %38, align 1, !tbaa !42
  %40 = zext i8 %39 to i32
  %41 = mul nsw i32 %6, %40
  %42 = getelementptr inbounds nuw i8, ptr %.06892.lver.orig, i64 2
  %43 = load i8, ptr %42, align 1, !tbaa !42
  %44 = zext i8 %43 to i32
  %45 = mul nsw i32 %5, %44
  %46 = add i32 %41, %11
  %47 = add i32 %46, %45
  %48 = ashr i32 %47, %13
  %.not.i73.lver.orig = icmp ult i32 %48, 256
  %isnotneg.i74.lver.orig = icmp sgt i32 %48, -1
  %49 = sext i1 %isnotneg.i74.lver.orig to i8
  %50 = trunc nuw i32 %48 to i8
  %.0.i75.lver.orig = select i1 %.not.i73.lver.orig, i8 %50, i8 %49
  store i8 %.0.i75.lver.orig, ptr %42, align 1, !tbaa !42
  %51 = getelementptr inbounds nuw i8, ptr %.093.lver.orig, i64 3
  %52 = load i8, ptr %51, align 1, !tbaa !42
  %53 = zext i8 %52 to i32
  %54 = mul nsw i32 %6, %53
  %55 = getelementptr inbounds nuw i8, ptr %.06892.lver.orig, i64 3
  %56 = load i8, ptr %55, align 1, !tbaa !42
  %57 = zext i8 %56 to i32
  %58 = mul nsw i32 %5, %57
  %59 = add i32 %54, %11
  %60 = add i32 %59, %58
  %61 = ashr i32 %60, %13
  %.not.i76.lver.orig = icmp ult i32 %61, 256
  %isnotneg.i77.lver.orig = icmp sgt i32 %61, -1
  %62 = sext i1 %isnotneg.i77.lver.orig to i8
  %63 = trunc nuw i32 %61 to i8
  %.0.i78.lver.orig = select i1 %.not.i76.lver.orig, i8 %63, i8 %62
  store i8 %.0.i78.lver.orig, ptr %55, align 1, !tbaa !42
  %64 = getelementptr inbounds nuw i8, ptr %.093.lver.orig, i64 4
  %65 = load i8, ptr %64, align 1, !tbaa !42
  %66 = zext i8 %65 to i32
  %67 = mul nsw i32 %6, %66
  %68 = getelementptr inbounds nuw i8, ptr %.06892.lver.orig, i64 4
  %69 = load i8, ptr %68, align 1, !tbaa !42
  %70 = zext i8 %69 to i32
  %71 = mul nsw i32 %5, %70
  %72 = add i32 %67, %11
  %73 = add i32 %72, %71
  %74 = ashr i32 %73, %13
  %.not.i79.lver.orig = icmp ult i32 %74, 256
  %isnotneg.i80.lver.orig = icmp sgt i32 %74, -1
  %75 = sext i1 %isnotneg.i80.lver.orig to i8
  %76 = trunc nuw i32 %74 to i8
  %.0.i81.lver.orig = select i1 %.not.i79.lver.orig, i8 %76, i8 %75
  store i8 %.0.i81.lver.orig, ptr %68, align 1, !tbaa !42
  %77 = getelementptr inbounds nuw i8, ptr %.093.lver.orig, i64 5
  %78 = load i8, ptr %77, align 1, !tbaa !42
  %79 = zext i8 %78 to i32
  %80 = mul nsw i32 %6, %79
  %81 = getelementptr inbounds nuw i8, ptr %.06892.lver.orig, i64 5
  %82 = load i8, ptr %81, align 1, !tbaa !42
  %83 = zext i8 %82 to i32
  %84 = mul nsw i32 %5, %83
  %85 = add i32 %80, %11
  %86 = add i32 %85, %84
  %87 = ashr i32 %86, %13
  %.not.i82.lver.orig = icmp ult i32 %87, 256
  %isnotneg.i83.lver.orig = icmp sgt i32 %87, -1
  %88 = sext i1 %isnotneg.i83.lver.orig to i8
  %89 = trunc nuw i32 %87 to i8
  %.0.i84.lver.orig = select i1 %.not.i82.lver.orig, i8 %89, i8 %88
  store i8 %.0.i84.lver.orig, ptr %81, align 1, !tbaa !42
  %90 = getelementptr inbounds nuw i8, ptr %.093.lver.orig, i64 6
  %91 = load i8, ptr %90, align 1, !tbaa !42
  %92 = zext i8 %91 to i32
  %93 = mul nsw i32 %6, %92
  %94 = getelementptr inbounds nuw i8, ptr %.06892.lver.orig, i64 6
  %95 = load i8, ptr %94, align 1, !tbaa !42
  %96 = zext i8 %95 to i32
  %97 = mul nsw i32 %5, %96
  %98 = add i32 %93, %11
  %99 = add i32 %98, %97
  %100 = ashr i32 %99, %13
  %.not.i85.lver.orig = icmp ult i32 %100, 256
  %isnotneg.i86.lver.orig = icmp sgt i32 %100, -1
  %101 = sext i1 %isnotneg.i86.lver.orig to i8
  %102 = trunc nuw i32 %100 to i8
  %.0.i87.lver.orig = select i1 %.not.i85.lver.orig, i8 %102, i8 %101
  store i8 %.0.i87.lver.orig, ptr %94, align 1, !tbaa !42
  %103 = getelementptr inbounds nuw i8, ptr %.093.lver.orig, i64 7
  %104 = load i8, ptr %103, align 1, !tbaa !42
  %105 = zext i8 %104 to i32
  %106 = mul nsw i32 %6, %105
  %107 = getelementptr inbounds nuw i8, ptr %.06892.lver.orig, i64 7
  %108 = load i8, ptr %107, align 1, !tbaa !42
  %109 = zext i8 %108 to i32
  %110 = mul nsw i32 %5, %109
  %111 = add i32 %106, %11
  %112 = add i32 %111, %110
  %113 = ashr i32 %112, %13
  %.not.i88.lver.orig = icmp ult i32 %113, 256
  %isnotneg.i89.lver.orig = icmp sgt i32 %113, -1
  %114 = sext i1 %isnotneg.i89.lver.orig to i8
  %115 = trunc nuw i32 %113 to i8
  %.0.i90.lver.orig = select i1 %.not.i88.lver.orig, i8 %115, i8 %114
  store i8 %.0.i90.lver.orig, ptr %107, align 1, !tbaa !42
  %116 = add nuw nsw i32 %.06991.lver.orig, 1
  %117 = getelementptr inbounds i8, ptr %.06892.lver.orig, i64 %2
  %118 = getelementptr inbounds i8, ptr %.093.lver.orig, i64 %2
  %exitcond.not.lver.orig = icmp eq i32 %116, %3
  br i1 %exitcond.not.lver.orig, label %._crit_edge, label %.ph.lver.orig, !llvm.loop !106

.ph:                                              ; preds = %.lver.check
  %scevgep = getelementptr i8, ptr %0, i64 6
  %load_initial = load i8, ptr %scevgep, align 1
  br label %119

119:                                              ; preds = %.ph, %119
  %store_forwarded = phi i8 [ %load_initial, %.ph ], [ %.0.i90, %119 ]
  %.093 = phi ptr [ %1, %.ph ], [ %223, %119 ]
  %.06892 = phi ptr [ %0, %.ph ], [ %222, %119 ]
  %.06991 = phi i32 [ 0, %.ph ], [ %221, %119 ]
  %120 = load i8, ptr %.093, align 1, !tbaa !42
  %121 = zext i8 %120 to i32
  %122 = mul nsw i32 %6, %121
  %123 = load i8, ptr %.06892, align 1, !tbaa !42
  %124 = zext i8 %123 to i32
  %125 = mul nsw i32 %5, %124
  %126 = add i32 %122, %11
  %127 = add i32 %126, %125
  %128 = ashr i32 %127, %13
  %.not.i = icmp ult i32 %128, 256
  %isnotneg.i = icmp sgt i32 %128, -1
  %129 = sext i1 %isnotneg.i to i8
  %130 = trunc nuw i32 %128 to i8
  %.0.i = select i1 %.not.i, i8 %130, i8 %129
  store i8 %.0.i, ptr %.06892, align 1, !tbaa !42
  %131 = getelementptr inbounds nuw i8, ptr %.093, i64 1
  %132 = load i8, ptr %131, align 1, !tbaa !42
  %133 = zext i8 %132 to i32
  %134 = mul nsw i32 %6, %133
  %135 = getelementptr inbounds nuw i8, ptr %.06892, i64 1
  %136 = load i8, ptr %135, align 1, !tbaa !42
  %137 = zext i8 %136 to i32
  %138 = mul nsw i32 %5, %137
  %139 = add i32 %134, %11
  %140 = add i32 %139, %138
  %141 = ashr i32 %140, %13
  %.not.i70 = icmp ult i32 %141, 256
  %isnotneg.i71 = icmp sgt i32 %141, -1
  %142 = sext i1 %isnotneg.i71 to i8
  %143 = trunc nuw i32 %141 to i8
  %.0.i72 = select i1 %.not.i70, i8 %143, i8 %142
  store i8 %.0.i72, ptr %135, align 1, !tbaa !42
  %144 = getelementptr inbounds nuw i8, ptr %.093, i64 2
  %145 = load i8, ptr %144, align 1, !tbaa !42
  %146 = zext i8 %145 to i32
  %147 = mul nsw i32 %6, %146
  %148 = getelementptr inbounds nuw i8, ptr %.06892, i64 2
  %149 = load i8, ptr %148, align 1, !tbaa !42
  %150 = zext i8 %149 to i32
  %151 = mul nsw i32 %5, %150
  %152 = add i32 %147, %11
  %153 = add i32 %152, %151
  %154 = ashr i32 %153, %13
  %.not.i73 = icmp ult i32 %154, 256
  %isnotneg.i74 = icmp sgt i32 %154, -1
  %155 = sext i1 %isnotneg.i74 to i8
  %156 = trunc nuw i32 %154 to i8
  %.0.i75 = select i1 %.not.i73, i8 %156, i8 %155
  store i8 %.0.i75, ptr %148, align 1, !tbaa !42
  %157 = getelementptr inbounds nuw i8, ptr %.093, i64 3
  %158 = load i8, ptr %157, align 1, !tbaa !42
  %159 = zext i8 %158 to i32
  %160 = mul nsw i32 %6, %159
  %161 = getelementptr inbounds nuw i8, ptr %.06892, i64 3
  %162 = load i8, ptr %161, align 1, !tbaa !42
  %163 = zext i8 %162 to i32
  %164 = mul nsw i32 %5, %163
  %165 = add i32 %160, %11
  %166 = add i32 %165, %164
  %167 = ashr i32 %166, %13
  %.not.i76 = icmp ult i32 %167, 256
  %isnotneg.i77 = icmp sgt i32 %167, -1
  %168 = sext i1 %isnotneg.i77 to i8
  %169 = trunc nuw i32 %167 to i8
  %.0.i78 = select i1 %.not.i76, i8 %169, i8 %168
  store i8 %.0.i78, ptr %161, align 1, !tbaa !42
  %170 = getelementptr inbounds nuw i8, ptr %.093, i64 4
  %171 = load i8, ptr %170, align 1, !tbaa !42
  %172 = zext i8 %171 to i32
  %173 = mul nsw i32 %6, %172
  %174 = getelementptr inbounds nuw i8, ptr %.06892, i64 4
  %175 = load i8, ptr %174, align 1, !tbaa !42
  %176 = zext i8 %175 to i32
  %177 = mul nsw i32 %5, %176
  %178 = add i32 %173, %11
  %179 = add i32 %178, %177
  %180 = ashr i32 %179, %13
  %.not.i79 = icmp ult i32 %180, 256
  %isnotneg.i80 = icmp sgt i32 %180, -1
  %181 = sext i1 %isnotneg.i80 to i8
  %182 = trunc nuw i32 %180 to i8
  %.0.i81 = select i1 %.not.i79, i8 %182, i8 %181
  store i8 %.0.i81, ptr %174, align 1, !tbaa !42
  %183 = getelementptr inbounds nuw i8, ptr %.093, i64 5
  %184 = load i8, ptr %183, align 1, !tbaa !42
  %185 = zext i8 %184 to i32
  %186 = mul nsw i32 %6, %185
  %187 = getelementptr inbounds nuw i8, ptr %.06892, i64 5
  %188 = load i8, ptr %187, align 1, !tbaa !42
  %189 = zext i8 %188 to i32
  %190 = mul nsw i32 %5, %189
  %191 = add i32 %186, %11
  %192 = add i32 %191, %190
  %193 = ashr i32 %192, %13
  %.not.i82 = icmp ult i32 %193, 256
  %isnotneg.i83 = icmp sgt i32 %193, -1
  %194 = sext i1 %isnotneg.i83 to i8
  %195 = trunc nuw i32 %193 to i8
  %.0.i84 = select i1 %.not.i82, i8 %195, i8 %194
  store i8 %.0.i84, ptr %187, align 1, !tbaa !42
  %196 = getelementptr inbounds nuw i8, ptr %.093, i64 6
  %197 = load i8, ptr %196, align 1, !tbaa !42
  %198 = zext i8 %197 to i32
  %199 = mul nsw i32 %6, %198
  %200 = getelementptr inbounds nuw i8, ptr %.06892, i64 6
  %201 = zext i8 %store_forwarded to i32
  %202 = mul nsw i32 %5, %201
  %203 = add i32 %199, %11
  %204 = add i32 %203, %202
  %205 = ashr i32 %204, %13
  %.not.i85 = icmp ult i32 %205, 256
  %isnotneg.i86 = icmp sgt i32 %205, -1
  %206 = sext i1 %isnotneg.i86 to i8
  %207 = trunc nuw i32 %205 to i8
  %.0.i87 = select i1 %.not.i85, i8 %207, i8 %206
  store i8 %.0.i87, ptr %200, align 1, !tbaa !42
  %208 = getelementptr inbounds nuw i8, ptr %.093, i64 7
  %209 = load i8, ptr %208, align 1, !tbaa !42
  %210 = zext i8 %209 to i32
  %211 = mul nsw i32 %6, %210
  %212 = getelementptr inbounds nuw i8, ptr %.06892, i64 7
  %213 = load i8, ptr %212, align 1, !tbaa !42
  %214 = zext i8 %213 to i32
  %215 = mul nsw i32 %5, %214
  %216 = add i32 %211, %11
  %217 = add i32 %216, %215
  %218 = ashr i32 %217, %13
  %.not.i88 = icmp ult i32 %218, 256
  %isnotneg.i89 = icmp sgt i32 %218, -1
  %219 = sext i1 %isnotneg.i89 to i8
  %220 = trunc nuw i32 %218 to i8
  %.0.i90 = select i1 %.not.i88, i8 %220, i8 %219
  store i8 %.0.i90, ptr %212, align 1, !tbaa !42
  %221 = add nuw nsw i32 %.06991, 1
  %222 = getelementptr inbounds nuw i8, ptr %.06892, i64 %2
  %223 = getelementptr inbounds nuw i8, ptr %.093, i64 %2
  %exitcond.not = icmp eq i32 %221, %3
  br i1 %exitcond.not, label %._crit_edge, label %119, !llvm.loop !106

._crit_edge:                                      ; preds = %.ph.lver.orig, %119, %8
  ret void
}